	.file	"datos.c"
	.text
Ltext0:
	.section .rdata,"dr"
	.align 4
LC0:
	.ascii "Seleccione una figura para calcular:\0"
LC1:
	.ascii "1. Tri\303\241ngulo\0"
LC2:
	.ascii "2. Paralelogramo\0"
LC3:
	.ascii "3. Cuadrado\0"
LC4:
	.ascii "4. Rect\303\241ngulo\0"
LC5:
	.ascii "5. Rombo\0"
LC6:
	.ascii "6. Trapecio\0"
LC7:
	.ascii "7. C\303\255rculo\0"
LC8:
	.ascii "8. Pol\303\255gono Regular\0"
LC9:
	.ascii "9. Cubo\0"
LC10:
	.ascii "10. Cuboide\0"
LC11:
	.ascii "11. Cilindro Recto\0"
LC12:
	.ascii "12. Esfera\0"
LC13:
	.ascii "13. Cono Circular Recto\0"
LC14:
	.ascii "0. Salir\0"
	.text
	.p2align 4,,15
	.globl	_mostrar_menu
	.def	_mostrar_menu;	.scl	2;	.type	32;	.endef
_mostrar_menu:
LFB12:
	.file 1 "datos.c"
	.loc 1 5 0
	.cfi_startproc
	subl	$28, %esp
	.cfi_def_cfa_offset 32
	.loc 1 6 0
	movl	$LC0, (%esp)
	call	_puts
LVL0:
	.loc 1 7 0
	movl	$LC1, (%esp)
	call	_puts
LVL1:
	.loc 1 8 0
	movl	$LC2, (%esp)
	call	_puts
LVL2:
	.loc 1 9 0
	movl	$LC3, (%esp)
	call	_puts
LVL3:
	.loc 1 10 0
	movl	$LC4, (%esp)
	call	_puts
LVL4:
	.loc 1 11 0
	movl	$LC5, (%esp)
	call	_puts
LVL5:
	.loc 1 12 0
	movl	$LC6, (%esp)
	call	_puts
LVL6:
	.loc 1 13 0
	movl	$LC7, (%esp)
	call	_puts
LVL7:
	.loc 1 14 0
	movl	$LC8, (%esp)
	call	_puts
LVL8:
	.loc 1 15 0
	movl	$LC9, (%esp)
	call	_puts
LVL9:
	.loc 1 16 0
	movl	$LC10, (%esp)
	call	_puts
LVL10:
	.loc 1 17 0
	movl	$LC11, (%esp)
	call	_puts
LVL11:
	.loc 1 18 0
	movl	$LC12, (%esp)
	call	_puts
LVL12:
	.loc 1 19 0
	movl	$LC13, (%esp)
	call	_puts
LVL13:
	.loc 1 20 0
	movl	$LC14, (%esp)
	call	_puts
LVL14:
	.loc 1 21 0
	addl	$28, %esp
	.cfi_def_cfa_offset 4
	ret
	.cfi_endproc
LFE12:
	.section .rdata,"dr"
	.align 4
LC15:
	.ascii "Indique el tipo de c\303\241lculo que quiere realizar:\0"
LC16:
	.ascii "1. \303\201rea\0"
LC17:
	.ascii "2. Per\303\255metro\0"
LC18:
	.ascii "Digite una opci\303\263n: \0"
LC19:
	.ascii "%d\0"
	.text
	.p2align 4,,15
	.globl	_mostrar_elegir_AP
	.def	_mostrar_elegir_AP;	.scl	2;	.type	32;	.endef
_mostrar_elegir_AP:
LFB13:
	.loc 1 24 0
	.cfi_startproc
	pushl	%ebx
	.cfi_def_cfa_offset 8
	.cfi_offset 3, -8
	subl	$40, %esp
	.cfi_def_cfa_offset 48
	.loc 1 26 0
	movl	$LC15, (%esp)
	leal	28(%esp), %ebx
	call	_puts
LVL15:
	.loc 1 27 0
	movl	$LC16, (%esp)
	call	_puts
LVL16:
	.loc 1 28 0
	movl	$LC17, (%esp)
	call	_puts
LVL17:
	.p2align 4,,10
L5:
	.loc 1 32 0 discriminator 1
	movl	$LC18, (%esp)
	call	_printf
LVL18:
	.loc 1 33 0 discriminator 1
	movl	%ebx, 4(%esp)
	movl	$LC19, (%esp)
	call	_scanf
LVL19:
	.loc 1 34 0 discriminator 1
	movl	28(%esp), %eax
	testl	%eax, %eax
	je	L5
	cmpl	$2, %eax
	jg	L5
	.loc 1 37 0
	addl	$40, %esp
	.cfi_def_cfa_offset 8
	popl	%ebx
	.cfi_restore 3
	.cfi_def_cfa_offset 4
	ret
	.cfi_endproc
LFE13:
	.section .rdata,"dr"
LC20:
	.ascii "1. Superficie\0"
LC21:
	.ascii "2. Volumen\0"
	.text
	.p2align 4,,15
	.globl	_mostrar_elegir_SV
	.def	_mostrar_elegir_SV;	.scl	2;	.type	32;	.endef
_mostrar_elegir_SV:
LFB14:
	.loc 1 40 0
	.cfi_startproc
	pushl	%ebx
	.cfi_def_cfa_offset 8
	.cfi_offset 3, -8
	subl	$40, %esp
	.cfi_def_cfa_offset 48
	.loc 1 42 0
	movl	$LC15, (%esp)
	leal	28(%esp), %ebx
	call	_puts
LVL20:
	.loc 1 43 0
	movl	$LC20, (%esp)
	call	_puts
LVL21:
	.loc 1 44 0
	movl	$LC21, (%esp)
	call	_puts
LVL22:
	.p2align 4,,10
L10:
	.loc 1 48 0 discriminator 1
	movl	$LC18, (%esp)
	call	_printf
LVL23:
	.loc 1 49 0 discriminator 1
	movl	%ebx, 4(%esp)
	movl	$LC19, (%esp)
	call	_scanf
LVL24:
	.loc 1 50 0 discriminator 1
	movl	28(%esp), %eax
	testl	%eax, %eax
	je	L10
	cmpl	$2, %eax
	jg	L10
	.loc 1 53 0
	addl	$40, %esp
	.cfi_def_cfa_offset 8
	popl	%ebx
	.cfi_restore 3
	.cfi_def_cfa_offset 4
	ret
	.cfi_endproc
LFE14:
	.section .rdata,"dr"
LC22:
	.ascii "\12Resultados para %s:\12\0"
	.align 4
LC23:
	.ascii "El resultado de su c\303\241lculo es %.2f\12\0"
	.text
	.p2align 4,,15
	.globl	_mostrar_resultado
	.def	_mostrar_resultado;	.scl	2;	.type	32;	.endef
_mostrar_resultado:
LFB15:
	.loc 1 56 0
	.cfi_startproc
LVL25:
	subl	$28, %esp
	.cfi_def_cfa_offset 32
	.loc 1 57 0
	movl	32(%esp), %eax
	movl	$LC22, (%esp)
	movl	%eax, 4(%esp)
	call	_printf
LVL26:
	.loc 1 58 0
	flds	36(%esp)
	movl	$LC23, (%esp)
	fstpl	4(%esp)
	call	_printf
LVL27:
	.loc 1 59 0
	addl	$28, %esp
	.cfi_def_cfa_offset 4
	ret
	.cfi_endproc
LFE15:
	.section .rdata,"dr"
	.align 4
LC25:
	.ascii "Ingrese la base del tri\303\241ngulo: \0"
LC26:
	.ascii "%f\0"
	.align 4
LC27:
	.ascii "Ingrese la altura del tri\303\241ngulo: \0"
	.align 4
LC28:
	.ascii "Ingrese el lado 1 del tri\303\241ngulo: \0"
	.align 4
LC29:
	.ascii "Ingrese el lado 2 del tri\303\241ngulo: \0"
	.align 4
LC30:
	.ascii "Ingrese el lado 3 del tri\303\241ngulo: \0"
	.align 4
LC31:
	.ascii "Ingrese la base del paralelogramo: \0"
	.align 4
LC32:
	.ascii "Ingrese la altura del paralelogramo: \0"
	.align 4
LC33:
	.ascii "Ingrese el lado a del paralelogramo: \0"
	.align 4
LC34:
	.ascii "Ingrese el lado b del paralelogramo: \0"
	.align 4
LC35:
	.ascii "Ingrese un lado del cuadrado: \0"
	.align 4
LC36:
	.ascii "Ingrese el largo del rect\303\241ngulo: \0"
	.align 4
LC37:
	.ascii "Ingrese el ancho del rect\303\241ngulo: \0"
	.align 4
LC38:
	.ascii "Ingrese la diagonal 1 del rombo: \0"
	.align 4
LC39:
	.ascii "Ingrese la diagonal 2 del rombo: \0"
LC40:
	.ascii "Ingrese un lado del rombo: \0"
	.align 4
LC41:
	.ascii "Ingrese la Base Mayor del trapecio: \0"
	.align 4
LC42:
	.ascii "Ingrese la Base Menor del trapecio: \0"
	.align 4
LC43:
	.ascii "Ingrese la altura del trapecio: \0"
	.align 4
LC44:
	.ascii "Ingrese el lado 1 del trapecio: \0"
	.align 4
LC45:
	.ascii "Ingrese el lado 2 del trapecio: \0"
	.align 4
LC46:
	.ascii "Ingrese el lado 3 del trapecio: \0"
	.align 4
LC47:
	.ascii "Ingrese el lado 4 del trapecio: \0"
	.align 4
LC48:
	.ascii "Ingrese el radio del c\303\255rculo: \0"
	.align 4
LC49:
	.ascii "Ingrese el n\303\272mero de lados del pol\303\255gono: \0"
	.align 4
LC50:
	.ascii "Ingrese la longitud de un lado del pol\303\255gono: \0"
	.align 4
LC51:
	.ascii "Ingrese la el apotema del pol\303\255gono: \0"
LC52:
	.ascii "Ingrese un lado del cubo: \0"
	.align 4
LC53:
	.ascii "Ingrese el largo del cuboide: \0"
	.align 4
LC54:
	.ascii "Ingrese el ancho del cuboide: \0"
LC55:
	.ascii "Ingrese el alto del cuboide: \0"
	.align 4
LC56:
	.ascii "Ingrese el radio del cilindro: \0"
	.align 4
LC57:
	.ascii "Ingrese la altura del cilindro: \0"
	.align 4
LC58:
	.ascii "Ingrese el radio de la esfera: \0"
LC59:
	.ascii "Ingrese el radio del cono: \0"
	.align 4
LC60:
	.ascii "Ingrese la generatriz del cono: \0"
LC61:
	.ascii "Ingrese la altura del cono: \0"
LC62:
	.ascii "Programa finalizado.\0"
	.align 4
LC63:
	.ascii "Opci\303\263n no v\303\241lida. Intente de nuevo.\0"
	.text
	.p2align 4,,15
	.globl	_solicitar_presentar_datos
	.def	_solicitar_presentar_datos;	.scl	2;	.type	32;	.endef
_solicitar_presentar_datos:
LFB16:
	.loc 1 62 0
	.cfi_startproc
LVL28:
	pushl	%ebx
	.cfi_def_cfa_offset 8
	.cfi_offset 3, -8
	subl	$56, %esp
	.cfi_def_cfa_offset 64
	.loc 1 62 0
	movl	64(%esp), %ebx
	.loc 1 64 0
	cmpl	$13, %ebx
	ja	L15
	jmp	*L17(,%ebx,4)
	.section .rdata,"dr"
	.align 4
L17:
	.long	L16
	.long	L18
	.long	L19
	.long	L20
	.long	L21
	.long	L22
	.long	L23
	.long	L24
	.long	L25
	.long	L26
	.long	L27
	.long	L28
	.long	L29
	.long	L30
	.text
	.p2align 4,,10
L29:
	.loc 1 320 0
	call	_mostrar_elegir_SV
LVL29:
	.loc 1 321 0
	cmpl	$1, %eax
LBB2:
	.loc 1 324 0
	movl	$LC58, (%esp)
LBE2:
	.loc 1 321 0
	je	L48
LBB3:
	.loc 1 330 0
	call	_printf
LVL30:
	.loc 1 331 0
	leal	44(%esp), %eax
	movl	$LC26, (%esp)
	movl	%eax, 4(%esp)
	call	_scanf
LVL31:
	.loc 1 332 0
	flds	44(%esp)
	fstps	(%esp)
	call	_calcular_volumen_esfera
LVL32:
	jmp	L47
	.p2align 4,,10
L30:
LBE3:
	.loc 1 339 0
	call	_mostrar_elegir_SV
LVL33:
	.loc 1 340 0
	cmpl	$1, %eax
LBB4:
	.loc 1 343 0
	movl	$LC59, (%esp)
LBE4:
	.loc 1 340 0
	je	L49
LBB5:
	.loc 1 351 0
	call	_printf
LVL34:
	.loc 1 352 0
	leal	40(%esp), %eax
	movl	$LC26, (%esp)
	movl	%eax, 4(%esp)
	call	_scanf
LVL35:
	.loc 1 353 0
	movl	$LC61, (%esp)
	call	_printf
LVL36:
	.loc 1 354 0
	leal	44(%esp), %eax
	movl	$LC26, (%esp)
	movl	%eax, 4(%esp)
	call	_scanf
LVL37:
	.loc 1 355 0
	flds	44(%esp)
	fstps	4(%esp)
	flds	40(%esp)
	fstps	(%esp)
	call	_calcular_volumen_cono_circular_recto
LVL38:
	jmp	L47
	.p2align 4,,10
L16:
LBE5:
	.loc 1 362 0
	movl	$LC62, (%esp)
	call	_printf
LVL39:
	.loc 1 371 0
	movl	%ebx, %eax
L45:
	.loc 1 372 0
	addl	$56, %esp
	.cfi_remember_state
	.cfi_def_cfa_offset 8
	popl	%ebx
	.cfi_restore 3
	.cfi_def_cfa_offset 4
	ret
	.p2align 4,,10
L18:
	.cfi_restore_state
	.loc 1 67 0
	call	_mostrar_elegir_AP
LVL40:
	.loc 1 68 0
	cmpl	$1, %eax
	je	L50
LBB6:
	.loc 1 79 0
	movl	$LC28, (%esp)
	call	_printf
LVL41:
	.loc 1 80 0
	leal	36(%esp), %eax
	movl	$LC26, (%esp)
	movl	%eax, 4(%esp)
	call	_scanf
LVL42:
	.loc 1 81 0
	movl	$LC29, (%esp)
	call	_printf
LVL43:
	.loc 1 82 0
	leal	40(%esp), %eax
	movl	$LC26, (%esp)
	movl	%eax, 4(%esp)
	call	_scanf
LVL44:
	.loc 1 83 0
	movl	$LC30, (%esp)
	call	_printf
LVL45:
	.loc 1 84 0
	leal	44(%esp), %eax
	movl	$LC26, (%esp)
	movl	%eax, 4(%esp)
	call	_scanf
LVL46:
	.loc 1 85 0
	flds	44(%esp)
	fstps	8(%esp)
	flds	40(%esp)
	fstps	4(%esp)
	flds	36(%esp)
	fstps	(%esp)
	call	_calcular_perimetro_triangulo
LVL47:
	jmp	L47
	.p2align 4,,10
L19:
LBE6:
	.loc 1 92 0
	call	_mostrar_elegir_AP
LVL48:
	.loc 1 93 0
	cmpl	$1, %eax
	je	L51
LBB7:
	.loc 1 104 0
	movl	$LC33, (%esp)
	call	_printf
LVL49:
	.loc 1 105 0
	leal	40(%esp), %eax
	movl	$LC26, (%esp)
	movl	%eax, 4(%esp)
	call	_scanf
LVL50:
	.loc 1 106 0
	movl	$LC34, (%esp)
	call	_printf
LVL51:
	.loc 1 107 0
	leal	44(%esp), %eax
	movl	$LC26, (%esp)
	movl	%eax, 4(%esp)
	call	_scanf
LVL52:
	.loc 1 108 0
	flds	44(%esp)
	fstps	4(%esp)
	flds	40(%esp)
	fstps	(%esp)
	call	_calcular_perimetro_paralelogramo
LVL53:
	jmp	L47
	.p2align 4,,10
L20:
LBE7:
	.loc 1 115 0
	call	_mostrar_elegir_AP
LVL54:
	.loc 1 116 0
	cmpl	$1, %eax
LBB8:
	.loc 1 119 0
	movl	$LC35, (%esp)
LBE8:
	.loc 1 116 0
	je	L52
LBB9:
	.loc 1 125 0
	call	_printf
LVL55:
	.loc 1 126 0
	leal	44(%esp), %eax
	movl	$LC26, (%esp)
	movl	%eax, 4(%esp)
	call	_scanf
LVL56:
	.loc 1 127 0
	flds	44(%esp)
	fstps	(%esp)
	call	_calcular_perimetro_cuadrado
LVL57:
	jmp	L47
	.p2align 4,,10
L21:
LBE9:
	.loc 1 134 0
	call	_mostrar_elegir_AP
LVL58:
	.loc 1 135 0
	cmpl	$1, %eax
LBB10:
	.loc 1 138 0
	movl	$LC36, (%esp)
LBE10:
	.loc 1 135 0
	je	L53
LBB11:
	.loc 1 146 0
	call	_printf
LVL59:
	.loc 1 147 0
	leal	40(%esp), %eax
	movl	$LC26, (%esp)
	movl	%eax, 4(%esp)
	call	_scanf
LVL60:
	.loc 1 148 0
	movl	$LC37, (%esp)
	call	_printf
LVL61:
	.loc 1 149 0
	leal	44(%esp), %eax
	movl	$LC26, (%esp)
	movl	%eax, 4(%esp)
	call	_scanf
LVL62:
	.loc 1 150 0
	flds	44(%esp)
	fstps	4(%esp)
	flds	40(%esp)
	fstps	(%esp)
	call	_calcular_perimetro_rectangulo
LVL63:
	jmp	L47
	.p2align 4,,10
L22:
LBE11:
	.loc 1 157 0
	call	_mostrar_elegir_AP
LVL64:
	.loc 1 158 0
	cmpl	$1, %eax
	je	L54
LBB12:
	.loc 1 169 0
	movl	$LC40, (%esp)
	call	_printf
LVL65:
	.loc 1 170 0
	leal	44(%esp), %eax
	movl	$LC26, (%esp)
	movl	%eax, 4(%esp)
	call	_scanf
LVL66:
	.loc 1 171 0
	flds	44(%esp)
	fstps	(%esp)
	call	_calcular_perimetro_rombo
LVL67:
	jmp	L47
	.p2align 4,,10
L23:
LBE12:
	.loc 1 178 0
	call	_mostrar_elegir_AP
LVL68:
	.loc 1 179 0
	cmpl	$1, %eax
	je	L55
LBB13:
	.loc 1 192 0
	movl	$LC44, (%esp)
	call	_printf
LVL69:
	.loc 1 193 0
	leal	32(%esp), %eax
	movl	$LC26, (%esp)
	movl	%eax, 4(%esp)
	call	_scanf
LVL70:
	.loc 1 194 0
	movl	$LC45, (%esp)
	call	_printf
LVL71:
	.loc 1 195 0
	leal	36(%esp), %eax
	movl	$LC26, (%esp)
	movl	%eax, 4(%esp)
	call	_scanf
LVL72:
	.loc 1 196 0
	movl	$LC46, (%esp)
	call	_printf
LVL73:
	.loc 1 197 0
	leal	40(%esp), %eax
	movl	$LC26, (%esp)
	movl	%eax, 4(%esp)
	call	_scanf
LVL74:
	.loc 1 198 0
	movl	$LC47, (%esp)
	call	_printf
LVL75:
	.loc 1 199 0
	leal	44(%esp), %eax
	movl	$LC26, (%esp)
	movl	%eax, 4(%esp)
	call	_scanf
LVL76:
	.loc 1 200 0
	flds	44(%esp)
	fstps	12(%esp)
	flds	40(%esp)
	fstps	8(%esp)
	flds	36(%esp)
	fstps	4(%esp)
	flds	32(%esp)
	fstps	(%esp)
	call	_calcular_perimetro_trapecio
LVL77:
	jmp	L47
	.p2align 4,,10
L24:
LBE13:
	.loc 1 207 0
	call	_mostrar_elegir_AP
LVL78:
	.loc 1 208 0
	cmpl	$1, %eax
LBB14:
	.loc 1 211 0
	movl	$LC48, (%esp)
LBE14:
	.loc 1 208 0
	je	L56
LBB15:
	.loc 1 217 0
	call	_printf
LVL79:
	.loc 1 218 0
	leal	44(%esp), %eax
	movl	$LC26, (%esp)
	movl	%eax, 4(%esp)
	call	_scanf
LVL80:
	.loc 1 219 0
	flds	44(%esp)
	fstps	(%esp)
	call	_calcular_perimetro_circulo
LVL81:
	jmp	L47
	.p2align 4,,10
L25:
LBE15:
	.loc 1 226 0
	call	_mostrar_elegir_AP
LVL82:
	.loc 1 227 0
	cmpl	$1, %eax
LBB16:
	.loc 1 230 0
	movl	$LC49, (%esp)
LBE16:
	.loc 1 227 0
	je	L57
LBB17:
	.loc 1 240 0
	call	_printf
LVL83:
	.loc 1 241 0
	leal	44(%esp), %eax
	movl	$LC19, (%esp)
	movl	%eax, 4(%esp)
	call	_scanf
LVL84:
	.loc 1 242 0
	movl	$LC50, (%esp)
	call	_printf
LVL85:
	.loc 1 243 0
	leal	40(%esp), %eax
	movl	$LC26, (%esp)
	movl	%eax, 4(%esp)
	call	_scanf
LVL86:
	.loc 1 244 0
	movl	44(%esp), %eax
	flds	40(%esp)
	fstps	4(%esp)
	movl	%eax, (%esp)
	call	_calcular_perimetro_poligono_regular
LVL87:
	jmp	L47
	.p2align 4,,10
L26:
LBE17:
	.loc 1 251 0
	call	_mostrar_elegir_SV
LVL88:
	.loc 1 252 0
	cmpl	$1, %eax
LBB18:
	.loc 1 255 0
	movl	$LC52, (%esp)
LBE18:
	.loc 1 252 0
	je	L58
LBB19:
	.loc 1 261 0
	call	_printf
LVL89:
	.loc 1 262 0
	leal	44(%esp), %eax
	movl	$LC26, (%esp)
	movl	%eax, 4(%esp)
	call	_scanf
LVL90:
	.loc 1 263 0
	flds	44(%esp)
	fstps	(%esp)
	call	_calcular_volumen_cubo
LVL91:
	jmp	L47
	.p2align 4,,10
L27:
LBE19:
	.loc 1 270 0
	call	_mostrar_elegir_SV
LVL92:
	.loc 1 271 0
	cmpl	$1, %eax
LBB20:
	.loc 1 274 0
	movl	$LC53, (%esp)
LBE20:
	.loc 1 271 0
	je	L59
LBB21:
	.loc 1 284 0
	call	_printf
LVL93:
	.loc 1 285 0
	leal	36(%esp), %eax
	movl	$LC26, (%esp)
	movl	%eax, 4(%esp)
	call	_scanf
LVL94:
	.loc 1 286 0
	movl	$LC54, (%esp)
	call	_printf
LVL95:
	.loc 1 287 0
	leal	40(%esp), %eax
	movl	$LC26, (%esp)
	movl	%eax, 4(%esp)
	call	_scanf
LVL96:
	.loc 1 288 0
	movl	$LC55, (%esp)
	call	_printf
LVL97:
	.loc 1 289 0
	leal	44(%esp), %eax
	movl	$LC26, (%esp)
	movl	%eax, 4(%esp)
	call	_scanf
LVL98:
	.loc 1 290 0
	flds	44(%esp)
	fstps	8(%esp)
	flds	40(%esp)
	fstps	4(%esp)
	flds	36(%esp)
	fstps	(%esp)
	call	_calcular_volumen_cuboide
LVL99:
	jmp	L47
	.p2align 4,,10
L28:
LBE21:
	.loc 1 297 0
	call	_mostrar_elegir_SV
LVL100:
	.loc 1 298 0
	cmpl	$1, %eax
LBB22:
	.loc 1 301 0
	movl	$LC56, (%esp)
LBE22:
	.loc 1 298 0
	je	L60
LBB23:
	.loc 1 309 0
	call	_printf
LVL101:
	.loc 1 310 0
	leal	40(%esp), %eax
	movl	$LC26, (%esp)
	movl	%eax, 4(%esp)
	call	_scanf
LVL102:
	.loc 1 311 0
	movl	$LC57, (%esp)
	call	_printf
LVL103:
	.loc 1 312 0
	leal	44(%esp), %eax
	movl	$LC26, (%esp)
	movl	%eax, 4(%esp)
	call	_scanf
LVL104:
	.loc 1 313 0
	flds	44(%esp)
	fstps	4(%esp)
	flds	40(%esp)
	fstps	(%esp)
	call	_calcular_volumen_cilindro_recto
LVL105:
L47:
LBE23:
LBB24:
	.loc 1 85 0
	fnstcw	30(%esp)
	movzwl	30(%esp), %eax
	movb	$12, %ah
	movw	%ax, 28(%esp)
	fldcw	28(%esp)
	fistpl	24(%esp)
	fldcw	30(%esp)
	movl	24(%esp), %eax
LBE24:
	.loc 1 372 0
	addl	$56, %esp
	.cfi_remember_state
	.cfi_def_cfa_offset 8
	popl	%ebx
	.cfi_restore 3
	.cfi_def_cfa_offset 4
	ret
	.p2align 4,,10
L15:
	.cfi_restore_state
	.loc 1 367 0
	movl	$LC63, (%esp)
	call	_puts
LVL106:
	.loc 1 371 0
	xorl	%eax, %eax
	.loc 1 368 0
	jmp	L45
LVL107:
	.p2align 4,,10
L48:
LBB25:
	.loc 1 324 0
	call	_printf
LVL108:
	.loc 1 325 0
	leal	44(%esp), %eax
	movl	$LC26, (%esp)
	movl	%eax, 4(%esp)
	call	_scanf
LVL109:
	.loc 1 326 0
	flds	44(%esp)
	fstps	(%esp)
	call	_calcular_superficie_esfera
LVL110:
	jmp	L47
LVL111:
	.p2align 4,,10
L52:
LBE25:
LBB26:
	.loc 1 119 0
	call	_printf
LVL112:
	.loc 1 120 0
	leal	44(%esp), %eax
	movl	$LC26, (%esp)
	movl	%eax, 4(%esp)
	call	_scanf
LVL113:
	.loc 1 121 0
	flds	44(%esp)
	fstps	(%esp)
	call	_calcular_area_cuadrado
LVL114:
	jmp	L47
LVL115:
	.p2align 4,,10
L51:
LBE26:
LBB27:
	.loc 1 96 0
	movl	$LC31, (%esp)
	call	_printf
LVL116:
	.loc 1 97 0
	leal	40(%esp), %eax
	movl	$LC26, (%esp)
	movl	%eax, 4(%esp)
	call	_scanf
LVL117:
	.loc 1 98 0
	movl	$LC32, (%esp)
	call	_printf
LVL118:
	.loc 1 99 0
	leal	44(%esp), %eax
	movl	$LC26, (%esp)
	movl	%eax, 4(%esp)
	call	_scanf
LVL119:
	.loc 1 100 0
	flds	44(%esp)
	fstps	4(%esp)
	flds	40(%esp)
	fstps	(%esp)
	call	_calcular_area_paralelogramo
LVL120:
	jmp	L47
LVL121:
	.p2align 4,,10
L50:
LBE27:
LBB28:
	.loc 1 71 0
	movl	$LC25, (%esp)
	call	_printf
LVL122:
	.loc 1 72 0
	leal	40(%esp), %eax
	movl	$LC26, (%esp)
	movl	%eax, 4(%esp)
	call	_scanf
LVL123:
	.loc 1 73 0
	movl	$LC27, (%esp)
	call	_printf
LVL124:
	.loc 1 74 0
	leal	44(%esp), %eax
	movl	$LC26, (%esp)
	movl	%eax, 4(%esp)
	call	_scanf
LVL125:
	.loc 1 75 0
	flds	44(%esp)
	fstps	4(%esp)
	flds	40(%esp)
	fstps	(%esp)
	call	_calcular_area_triangulo
LVL126:
	jmp	L47
LVL127:
	.p2align 4,,10
L49:
LBE28:
LBB29:
	.loc 1 343 0
	call	_printf
LVL128:
	.loc 1 344 0
	leal	40(%esp), %eax
	movl	$LC26, (%esp)
	movl	%eax, 4(%esp)
	call	_scanf
LVL129:
	.loc 1 345 0
	movl	$LC60, (%esp)
	call	_printf
LVL130:
	.loc 1 346 0
	leal	44(%esp), %eax
	movl	$LC26, (%esp)
	movl	%eax, 4(%esp)
	call	_scanf
LVL131:
	.loc 1 347 0
	flds	44(%esp)
	fstps	4(%esp)
	flds	40(%esp)
	fstps	(%esp)
	call	_calcular_superficie_cono_circular_recto
LVL132:
	jmp	L47
LVL133:
	.p2align 4,,10
L56:
LBE29:
LBB30:
	.loc 1 211 0
	call	_printf
LVL134:
	.loc 1 212 0
	leal	44(%esp), %eax
	movl	$LC26, (%esp)
	movl	%eax, 4(%esp)
	call	_scanf
LVL135:
	.loc 1 213 0
	flds	44(%esp)
	fstps	(%esp)
	call	_calcular_area_circulo
LVL136:
	jmp	L47
LVL137:
	.p2align 4,,10
L55:
LBE30:
LBB31:
	.loc 1 182 0
	movl	$LC41, (%esp)
	call	_printf
LVL138:
	.loc 1 183 0
	leal	36(%esp), %eax
	movl	$LC26, (%esp)
	movl	%eax, 4(%esp)
	call	_scanf
LVL139:
	.loc 1 184 0
	movl	$LC42, (%esp)
	call	_printf
LVL140:
	.loc 1 185 0
	leal	40(%esp), %eax
	movl	$LC26, (%esp)
	movl	%eax, 4(%esp)
	call	_scanf
LVL141:
	.loc 1 186 0
	movl	$LC43, (%esp)
	call	_printf
LVL142:
	.loc 1 187 0
	leal	44(%esp), %eax
	movl	$LC26, (%esp)
	movl	%eax, 4(%esp)
	call	_scanf
LVL143:
	.loc 1 188 0
	flds	44(%esp)
	fstps	8(%esp)
	flds	40(%esp)
	fstps	4(%esp)
	flds	36(%esp)
	fstps	(%esp)
	call	_calcular_area_trapecio
LVL144:
	jmp	L47
LVL145:
	.p2align 4,,10
L54:
LBE31:
LBB32:
	.loc 1 161 0
	movl	$LC38, (%esp)
	call	_printf
LVL146:
	.loc 1 162 0
	leal	40(%esp), %eax
	movl	$LC26, (%esp)
	movl	%eax, 4(%esp)
	call	_scanf
LVL147:
	.loc 1 163 0
	movl	$LC39, (%esp)
	call	_printf
LVL148:
	.loc 1 164 0
	leal	44(%esp), %eax
	movl	$LC26, (%esp)
	movl	%eax, 4(%esp)
	call	_scanf
LVL149:
	.loc 1 165 0
	flds	44(%esp)
	fstps	4(%esp)
	flds	40(%esp)
	fstps	(%esp)
	call	_calcular_area_rombo
LVL150:
	jmp	L47
LVL151:
	.p2align 4,,10
L53:
LBE32:
LBB33:
	.loc 1 138 0
	call	_printf
LVL152:
	.loc 1 139 0
	leal	40(%esp), %eax
	movl	$LC26, (%esp)
	movl	%eax, 4(%esp)
	call	_scanf
LVL153:
	.loc 1 140 0
	movl	$LC37, (%esp)
	call	_printf
LVL154:
	.loc 1 141 0
	leal	44(%esp), %eax
	movl	$LC26, (%esp)
	movl	%eax, 4(%esp)
	call	_scanf
LVL155:
	.loc 1 142 0
	flds	44(%esp)
	fstps	4(%esp)
	flds	40(%esp)
	fstps	(%esp)
	call	_calcular_area_rectangulo
LVL156:
	jmp	L47
LVL157:
	.p2align 4,,10
L60:
LBE33:
LBB34:
	.loc 1 301 0
	call	_printf
LVL158:
	.loc 1 302 0
	leal	40(%esp), %eax
	movl	$LC26, (%esp)
	movl	%eax, 4(%esp)
	call	_scanf
LVL159:
	.loc 1 303 0
	movl	$LC57, (%esp)
	call	_printf
LVL160:
	.loc 1 304 0
	leal	44(%esp), %eax
	movl	$LC26, (%esp)
	movl	%eax, 4(%esp)
	call	_scanf
LVL161:
	.loc 1 305 0
	flds	44(%esp)
	fstps	4(%esp)
	flds	40(%esp)
	fstps	(%esp)
	call	_calcular_superficie_cilindro_recto
LVL162:
	jmp	L47
LVL163:
	.p2align 4,,10
L59:
LBE34:
LBB35:
	.loc 1 274 0
	call	_printf
LVL164:
	.loc 1 275 0
	leal	36(%esp), %eax
	movl	$LC26, (%esp)
	movl	%eax, 4(%esp)
	call	_scanf
LVL165:
	.loc 1 276 0
	movl	$LC54, (%esp)
	call	_printf
LVL166:
	.loc 1 277 0
	leal	40(%esp), %eax
	movl	$LC26, (%esp)
	movl	%eax, 4(%esp)
	call	_scanf
LVL167:
	.loc 1 278 0
	movl	$LC55, (%esp)
	call	_printf
LVL168:
	.loc 1 279 0
	leal	44(%esp), %eax
	movl	$LC26, (%esp)
	movl	%eax, 4(%esp)
	call	_scanf
LVL169:
	.loc 1 280 0
	flds	44(%esp)
	fstps	8(%esp)
	flds	40(%esp)
	fstps	4(%esp)
	flds	36(%esp)
	fstps	(%esp)
	call	_calcular_superficie_cuboide
LVL170:
	jmp	L47
LVL171:
	.p2align 4,,10
L58:
LBE35:
LBB36:
	.loc 1 255 0
	call	_printf
LVL172:
	.loc 1 256 0
	leal	44(%esp), %eax
	movl	$LC26, (%esp)
	movl	%eax, 4(%esp)
	call	_scanf
LVL173:
	.loc 1 257 0
	flds	44(%esp)
	fstps	(%esp)
	call	_calcular_superficie_cubo
LVL174:
	jmp	L47
LVL175:
	.p2align 4,,10
L57:
LBE36:
LBB37:
	.loc 1 230 0
	call	_printf
LVL176:
	.loc 1 231 0
	leal	44(%esp), %eax
	movl	$LC19, (%esp)
	movl	%eax, 4(%esp)
	call	_scanf
LVL177:
	.loc 1 232 0
	movl	$LC50, (%esp)
	call	_printf
LVL178:
	.loc 1 233 0
	leal	36(%esp), %eax
	movl	$LC26, (%esp)
	movl	%eax, 4(%esp)
	call	_scanf
LVL179:
	.loc 1 234 0
	movl	$LC51, (%esp)
	call	_printf
LVL180:
	.loc 1 235 0
	leal	40(%esp), %eax
	movl	$LC26, (%esp)
	movl	%eax, 4(%esp)
	call	_scanf
LVL181:
	.loc 1 236 0
	flds	40(%esp)
	movl	44(%esp), %eax
	fstps	8(%esp)
	movl	%eax, (%esp)
	flds	36(%esp)
	fstps	4(%esp)
	call	_calcular_area_poligono_regular
LVL182:
	jmp	L47
LBE37:
	.cfi_endproc
LFE16:
	.section .rdata,"dr"
	.align 4
LC64:
	.ascii "\302\277Desea realizar otro c\303\241lculo? (s/n): \0"
LC65:
	.ascii " %c\0"
	.text
	.p2align 4,,15
	.globl	_continuar
	.def	_continuar;	.scl	2;	.type	32;	.endef
_continuar:
LFB17:
	.loc 1 374 0
	.cfi_startproc
	subl	$44, %esp
	.cfi_def_cfa_offset 48
	.loc 1 376 0
	movl	$LC64, (%esp)
	call	_printf
LVL183:
	.loc 1 377 0
	leal	31(%esp), %eax
	movl	$LC65, (%esp)
	movl	%eax, 4(%esp)
	call	_scanf
LVL184:
	.loc 1 378 0
	movzbl	31(%esp), %eax
	andl	$-33, %eax
	cmpb	$83, %al
	sete	%al
	.loc 1 382 0
	addl	$44, %esp
	.cfi_def_cfa_offset 4
	.loc 1 378 0
	movzbl	%al, %eax
	.loc 1 382 0
	ret
	.cfi_endproc
LFE17:
Letext0:
	.file 2 "c:/mingw/include/stdio.h"
	.file 3 "libreria.h"
	.file 4 "<built-in>"